; ModuleID = '2/814.c'
source_filename = "2/814.c"
target datalayout = "e-m:e-p270:32:32-p271:32:32-p272:64:64-i64:64-f80:128-n8:16:32:64-S128"
target triple = "x86_64-pc-linux-gnu"

%struct.book = type { i32, [27 x i8], %struct.book* }

@.str = private unnamed_addr constant [3 x i8] c"%d\00", align 1
@.str.1 = private unnamed_addr constant [24 x i8] c"Memory request failed!\0A\00", align 1
@.str.2 = private unnamed_addr constant [6 x i8] c"%d %s\00", align 1
@.str.3 = private unnamed_addr constant [7 x i8] c"%c\0A%d\0A\00", align 1
@.str.4 = private unnamed_addr constant [4 x i8] c"%d\0A\00", align 1

; Function Attrs: noinline nounwind uwtable
define dso_local void @main() #0 {
  %1 = alloca %struct.book*, align 8
  %2 = alloca %struct.book*, align 8
  %3 = alloca %struct.book*, align 8
  %4 = alloca i32, align 4
  %5 = alloca i32, align 4
  %6 = alloca i32, align 4
  %7 = alloca [26 x i32], align 16
  %8 = alloca i32, align 4
  %9 = alloca i32, align 4
  store %struct.book* null, %struct.book** %1, align 8
  %10 = bitcast [26 x i32]* %7 to i8*
  call void @llvm.memset.p0i8.i64(i8* align 16 %10, i8 0, i64 104, i1 false)
  %11 = call i32 (i8*, ...) @__isoc99_scanf(i8* getelementptr inbounds ([3 x i8], [3 x i8]* @.str, i64 0, i64 0), i32* %4)
  store i32 0, i32* %5, align 4
  br label %12

12:                                               ; preds = %66, %0
  %13 = load i32, i32* %5, align 4
  %14 = load i32, i32* %4, align 4
  %15 = icmp slt i32 %13, %14
  br i1 %15, label %16, label %69

16:                                               ; preds = %12
  %17 = call noalias i8* @malloc(i64 40) #6
  %18 = bitcast i8* %17 to %struct.book*
  store %struct.book* %18, %struct.book** %2, align 8
  %19 = load %struct.book*, %struct.book** %2, align 8
  %20 = icmp eq %struct.book* %19, null
  br i1 %20, label %21, label %23

21:                                               ; preds = %16
  %22 = call i32 (i8*, ...) @printf(i8* getelementptr inbounds ([24 x i8], [24 x i8]* @.str.1, i64 0, i64 0))
  call void @exit(i32 -1) #7
  unreachable

23:                                               ; preds = %16
  %24 = load %struct.book*, %struct.book** %2, align 8
  %25 = getelementptr inbounds %struct.book, %struct.book* %24, i32 0, i32 0
  %26 = load %struct.book*, %struct.book** %2, align 8
  %27 = getelementptr inbounds %struct.book, %struct.book* %26, i32 0, i32 1
  %28 = getelementptr inbounds [27 x i8], [27 x i8]* %27, i64 0, i64 0
  %29 = call i32 (i8*, ...) @__isoc99_scanf(i8* getelementptr inbounds ([6 x i8], [6 x i8]* @.str.2, i64 0, i64 0), i32* %25, i8* %28)
  %30 = load %struct.book*, %struct.book** %2, align 8
  %31 = getelementptr inbounds %struct.book, %struct.book* %30, i32 0, i32 1
  %32 = getelementptr inbounds [27 x i8], [27 x i8]* %31, i64 0, i64 0
  %33 = call i64 @strlen(i8* %32) #8
  %34 = trunc i64 %33 to i32
  store i32 %34, i32* %8, align 4
  store i32 0, i32* %6, align 4
  br label %35

35:                                               ; preds = %52, %23
  %36 = load i32, i32* %6, align 4
  %37 = load i32, i32* %8, align 4
  %38 = icmp slt i32 %36, %37
  br i1 %38, label %39, label %55

39:                                               ; preds = %35
  %40 = load %struct.book*, %struct.book** %2, align 8
  %41 = getelementptr inbounds %struct.book, %struct.book* %40, i32 0, i32 1
  %42 = load i32, i32* %6, align 4
  %43 = sext i32 %42 to i64
  %44 = getelementptr inbounds [27 x i8], [27 x i8]* %41, i64 0, i64 %43
  %45 = load i8, i8* %44, align 1
  %46 = sext i8 %45 to i32
  %47 = sub nsw i32 %46, 65
  %48 = sext i32 %47 to i64
  %49 = getelementptr inbounds [26 x i32], [26 x i32]* %7, i64 0, i64 %48
  %50 = load i32, i32* %49, align 4
  %51 = add nsw i32 %50, 1
  store i32 %51, i32* %49, align 4
  br label %52

52:                                               ; preds = %39
  %53 = load i32, i32* %6, align 4
  %54 = add nsw i32 %53, 1
  store i32 %54, i32* %6, align 4
  br label %35

55:                                               ; preds = %35
  %56 = load %struct.book*, %struct.book** %1, align 8
  %57 = icmp ne %struct.book* %56, null
  br i1 %57, label %58, label %62

58:                                               ; preds = %55
  %59 = load %struct.book*, %struct.book** %2, align 8
  %60 = load %struct.book*, %struct.book** %3, align 8
  %61 = getelementptr inbounds %struct.book, %struct.book* %60, i32 0, i32 2
  store %struct.book* %59, %struct.book** %61, align 8
  br label %64

62:                                               ; preds = %55
  %63 = load %struct.book*, %struct.book** %2, align 8
  store %struct.book* %63, %struct.book** %1, align 8
  br label %64

64:                                               ; preds = %62, %58
  %65 = load %struct.book*, %struct.book** %2, align 8
  store %struct.book* %65, %struct.book** %3, align 8
  br label %66

66:                                               ; preds = %64
  %67 = load i32, i32* %5, align 4
  %68 = add nsw i32 %67, 1
  store i32 %68, i32* %5, align 4
  br label %12

69:                                               ; preds = %12
  %70 = load %struct.book*, %struct.book** %2, align 8
  %71 = getelementptr inbounds %struct.book, %struct.book* %70, i32 0, i32 2
  store %struct.book* null, %struct.book** %71, align 8
  store i32 0, i32* %8, align 4
  store i32 0, i32* %5, align 4
  br label %72

72:                                               ; preds = %89, %69
  %73 = load i32, i32* %5, align 4
  %74 = icmp slt i32 %73, 26
  br i1 %74, label %75, label %92

75:                                               ; preds = %72
  %76 = load i32, i32* %5, align 4
  %77 = sext i32 %76 to i64
  %78 = getelementptr inbounds [26 x i32], [26 x i32]* %7, i64 0, i64 %77
  %79 = load i32, i32* %78, align 4
  %80 = load i32, i32* %8, align 4
  %81 = icmp sgt i32 %79, %80
  br i1 %81, label %82, label %88

82:                                               ; preds = %75
  %83 = load i32, i32* %5, align 4
  %84 = sext i32 %83 to i64
  %85 = getelementptr inbounds [26 x i32], [26 x i32]* %7, i64 0, i64 %84
  %86 = load i32, i32* %85, align 4
  store i32 %86, i32* %8, align 4
  %87 = load i32, i32* %5, align 4
  store i32 %87, i32* %9, align 4
  br label %88

88:                                               ; preds = %82, %75
  br label %89

89:                                               ; preds = %88
  %90 = load i32, i32* %5, align 4
  %91 = add nsw i32 %90, 1
  store i32 %91, i32* %5, align 4
  br label %72

92:                                               ; preds = %72
  %93 = load i32, i32* %9, align 4
  %94 = add nsw i32 %93, 65
  %95 = load i32, i32* %9, align 4
  %96 = sext i32 %95 to i64
  %97 = getelementptr inbounds [26 x i32], [26 x i32]* %7, i64 0, i64 %96
  %98 = load i32, i32* %97, align 4
  %99 = call i32 (i8*, ...) @printf(i8* getelementptr inbounds ([7 x i8], [7 x i8]* @.str.3, i64 0, i64 0), i32 %94, i32 %98)
  %100 = load i32, i32* %9, align 4
  %101 = add nsw i32 %100, 65
  store i32 %101, i32* %9, align 4
  %102 = load %struct.book*, %struct.book** %1, align 8
  store %struct.book* %102, %struct.book** %2, align 8
  br label %103

103:                                              ; preds = %136, %92
  %104 = load %struct.book*, %struct.book** %2, align 8
  %105 = icmp ne %struct.book* %104, null
  br i1 %105, label %106, label %140

106:                                              ; preds = %103
  %107 = load %struct.book*, %struct.book** %2, align 8
  %108 = getelementptr inbounds %struct.book, %struct.book* %107, i32 0, i32 1
  %109 = getelementptr inbounds [27 x i8], [27 x i8]* %108, i64 0, i64 0
  %110 = call i64 @strlen(i8* %109) #8
  %111 = trunc i64 %110 to i32
  store i32 %111, i32* %8, align 4
  store i32 0, i32* %5, align 4
  br label %112

112:                                              ; preds = %132, %106
  %113 = load i32, i32* %5, align 4
  %114 = load i32, i32* %8, align 4
  %115 = icmp slt i32 %113, %114
  br i1 %115, label %116, label %135

116:                                              ; preds = %112
  %117 = load %struct.book*, %struct.book** %2, align 8
  %118 = getelementptr inbounds %struct.book, %struct.book* %117, i32 0, i32 1
  %119 = load i32, i32* %5, align 4
  %120 = sext i32 %119 to i64
  %121 = getelementptr inbounds [27 x i8], [27 x i8]* %118, i64 0, i64 %120
  %122 = load i8, i8* %121, align 1
  %123 = sext i8 %122 to i32
  %124 = load i32, i32* %9, align 4
  %125 = icmp eq i32 %123, %124
  br i1 %125, label %126, label %131

126:                                              ; preds = %116
  %127 = load %struct.book*, %struct.book** %2, align 8
  %128 = getelementptr inbounds %struct.book, %struct.book* %127, i32 0, i32 0
  %129 = load i32, i32* %128, align 8
  %130 = call i32 (i8*, ...) @printf(i8* getelementptr inbounds ([4 x i8], [4 x i8]* @.str.4, i64 0, i64 0), i32 %129)
  br label %135

131:                                              ; preds = %116
  br label %132

132:                                              ; preds = %131
  %133 = load i32, i32* %5, align 4
  %134 = add nsw i32 %133, 1
  store i32 %134, i32* %5, align 4
  br label %112

135:                                              ; preds = %126, %112
  br label %136

136:                                              ; preds = %135
  %137 = load %struct.book*, %struct.book** %2, align 8
  %138 = getelementptr inbounds %struct.book, %struct.book* %137, i32 0, i32 2
  %139 = load %struct.book*, %struct.book** %138, align 8
  store %struct.book* %139, %struct.book** %2, align 8
  br label %103

140:                                              ; preds = %103
  ret void
}

; Function Attrs: argmemonly nounwind willreturn
declare void @llvm.memset.p0i8.i64(i8* nocapture writeonly, i8, i64, i1 immarg) #1

declare dso_local i32 @__isoc99_scanf(i8*, ...) #2

; Function Attrs: nounwind
declare dso_local noalias i8* @malloc(i64) #3

declare dso_local i32 @printf(i8*, ...) #2

; Function Attrs: noreturn nounwind
declare dso_local void @exit(i32) #4

; Function Attrs: nounwind readonly
declare dso_local i64 @strlen(i8*) #5


!llvm.module.flags = !{!0}
!llvm.ident = !{!1}

!0 = !{i32 1, !"wchar_size", i32 4}
!1 = !{!"clang version 10.0.0-4ubuntu1 "}
